EXPORTS
	qt_plugin_query_verification_data @ 1 NONAME
	qt_plugin_instance @ 2 NONAME
	_ZN11QRangeModel10setMaximumEf @ 3 NONAME
	_ZN11QRangeModel10setMinimumEf @ 4 NONAME
	_ZN11QRangeModel11qt_metacallEN11QMetaObject4CallEiPPv @ 5 NONAME
	_ZN11QRangeModel11qt_metacastEPKc @ 6 NONAME
	_ZN11QRangeModel11setInvertedEb @ 7 NONAME
	_ZN11QRangeModel11setPositionEf @ 8 NONAME
	_ZN11QRangeModel11setStepSizeEf @ 9 NONAME
	_ZN11QRangeModel12valueChangedEf @ 10 NONAME
	_ZN11QRangeModel14maximumChangedEf @ 11 NONAME
	_ZN11QRangeModel14minimumChangedEf @ 12 NONAME
	_ZN11QRangeModel15invertedChangedEb @ 13 NONAME
	_ZN11QRangeModel15positionChangedEf @ 14 NONAME
	_ZN11QRangeModel15stepSizeChangedEf @ 15 NONAME
	_ZN11QRangeModel16setPositionRangeEff @ 16 NONAME
	_ZN11QRangeModel16staticMetaObjectE @ 17 NONAME DATA 16
	_ZN11QRangeModel18qt_static_metacallEP7QObjectN11QMetaObject4CallEiPPv @ 18 NONAME
	_ZN11QRangeModel19getStaticMetaObjectEv @ 19 NONAME
	_ZN11QRangeModel20setPositionAtMaximumEf @ 20 NONAME
	_ZN11QRangeModel20setPositionAtMinimumEf @ 21 NONAME
	_ZN11QRangeModel24positionAtMaximumChangedEf @ 22 NONAME
	_ZN11QRangeModel24positionAtMinimumChangedEf @ 23 NONAME
	_ZN11QRangeModel25staticMetaObjectExtraDataE @ 24 NONAME DATA 8
	_ZN11QRangeModel8setRangeEff @ 25 NONAME
	_ZN11QRangeModel8setValueEf @ 26 NONAME
	_ZN11QRangeModel9toMaximumEv @ 27 NONAME
	_ZN11QRangeModel9toMinimumEv @ 28 NONAME
	_ZN11QRangeModelC1EP7QObject @ 29 NONAME
	_ZN11QRangeModelC1ER18QRangeModelPrivateP7QObject @ 30 NONAME
	_ZN11QRangeModelC2EP7QObject @ 31 NONAME
	_ZN11QRangeModelC2ER18QRangeModelPrivateP7QObject @ 32 NONAME
	_ZN11QRangeModelD0Ev @ 33 NONAME
	_ZN11QRangeModelD1Ev @ 34 NONAME
	_ZN11QRangeModelD2Ev @ 35 NONAME
	_ZN8QGlobals11qt_metacallEN11QMetaObject4CallEiPPv @ 36 NONAME
	_ZN8QGlobals11qt_metacastEPKc @ 37 NONAME
	_ZN8QGlobals16staticMetaObjectE @ 38 NONAME DATA 16
	_ZN8QGlobals18qt_static_metacallEP7QObjectN11QMetaObject4CallEiPPv @ 39 NONAME
	_ZN8QGlobals19getStaticMetaObjectEv @ 40 NONAME
	_ZN8QGlobals25staticMetaObjectExtraDataE @ 41 NONAME DATA 8
	_ZNK11QRangeModel10metaObjectEv @ 42 NONAME
	_ZNK11QRangeModel16positionForValueEf @ 43 NONAME
	_ZNK11QRangeModel16valueForPositionEf @ 44 NONAME
	_ZNK11QRangeModel17positionAtMaximumEv @ 45 NONAME
	_ZNK11QRangeModel17positionAtMinimumEv @ 46 NONAME
	_ZNK11QRangeModel5valueEv @ 47 NONAME
	_ZNK11QRangeModel7maximumEv @ 48 NONAME
	_ZNK11QRangeModel7minimumEv @ 49 NONAME
	_ZNK11QRangeModel8invertedEv @ 50 NONAME
	_ZNK11QRangeModel8positionEv @ 51 NONAME
	_ZNK11QRangeModel8stepSizeEv @ 52 NONAME
	_ZNK8QGlobals10metaObjectEv @ 53 NONAME
	_ZTI11QRangeModel @ 54 NONAME
	_ZTI8QGlobals @ 55 NONAME
	_ZTV11QRangeModel @ 56 NONAME
	_ZTV8QGlobals @ 57 NONAME
